target datalayout = "e-m:e-p270:32:32-p271:32:32-p272:64:64-i64:64-i128:128-f80:128-n8:16:32:64-S128"
target triple = "x86_64-pc-linux-gnu"

%struct.expert_field = type { i32, i32 }

@hf_oran_sequence_id = internal global i32 0, align 4
@hf_oran_e_bit = internal global i32 0, align 4
@hf_oran_subsequence_id = internal global i32 0, align 4
@hf_oran_ecpri_seqid = internal global i32 0, align 4
@ett_oran_ecpri_seqid = internal global i32 0, align 4
@ei_oran_radio_fragmentation_c_plane = internal global %struct.expert_field zeroinitializer, align 4
@ei_oran_radio_fragmentation_u_plane = internal global %struct.expert_field zeroinitializer, align 4
@.str.1187 = private unnamed_addr constant [35 x i8] c" (SeqId: %3d, E: %d, SubSeqId: %d)\00", align 1

; Function Attrs: null_pointer_is_valid sspstrong uwtable
define internal i32 @addSeqid(ptr noundef %0, ptr noundef %1, i32 noundef %2, i32 noundef %3, ptr noundef %4, ptr noundef %5) #0 {
  %7 = alloca ptr, align 8
  %8 = alloca ptr, align 8
  %9 = alloca i32, align 4
  %10 = alloca i32, align 4
  %11 = alloca ptr, align 8
  %12 = alloca ptr, align 8
  %13 = alloca ptr, align 8
  %14 = alloca ptr, align 8
  %15 = alloca i32, align 4
  %16 = alloca i32, align 4
  %17 = alloca i32, align 4
  store ptr %0, ptr %7, align 8
  store ptr %1, ptr %8, align 8
  store i32 %2, ptr %9, align 4
  store i32 %3, ptr %10, align 4
  store ptr %4, ptr %11, align 8
  store ptr %5, ptr %12, align 8
  call void @llvm.lifetime.start.p0(i64 8, ptr %13) #12
  %18 = load ptr, ptr %8, align 8
  %19 = load i32, ptr @hf_oran_ecpri_seqid, align 4
  %20 = load ptr, ptr %7, align 8
  %21 = load i32, ptr %9, align 4
  %22 = call ptr @proto_tree_add_item(ptr noundef %18, i32 noundef %19, ptr noundef %20, i32 noundef %21, i32 noundef 2, i32 noundef 0)
  store ptr %22, ptr %13, align 8
  call void @llvm.lifetime.start.p0(i64 8, ptr %14) #12
  %23 = load ptr, ptr %13, align 8
  %24 = load i32, ptr @ett_oran_ecpri_seqid, align 4
  %25 = call ptr @proto_item_add_subtree(ptr noundef %23, i32 noundef %24)
  store ptr %25, ptr %14, align 8
  call void @llvm.lifetime.start.p0(i64 4, ptr %15) #12
  call void @llvm.lifetime.start.p0(i64 4, ptr %16) #12
  call void @llvm.lifetime.start.p0(i64 4, ptr %17) #12
  store i32 0, ptr %17, align 4
  %26 = load ptr, ptr %14, align 8
  %27 = load i32, ptr @hf_oran_sequence_id, align 4
  %28 = load ptr, ptr %7, align 8
  %29 = load i32, ptr %9, align 4
  %30 = call ptr @proto_tree_add_item_ret_uint(ptr noundef %26, i32 noundef %27, ptr noundef %28, i32 noundef %29, i32 noundef 1, i32 noundef 0, ptr noundef %15)
  %31 = load ptr, ptr %12, align 8
  store ptr %30, ptr %31, align 8
  %32 = load i32, ptr %15, align 4
  %33 = trunc i32 %32 to i8
  %34 = load ptr, ptr %11, align 8
  store i8 %33, ptr %34, align 1
  %35 = load i32, ptr %9, align 4
  %36 = add i32 %35, 1
  store i32 %36, ptr %9, align 4
  %37 = load ptr, ptr %14, align 8
  %38 = load i32, ptr @hf_oran_e_bit, align 4
  %39 = load ptr, ptr %7, align 8
  %40 = load i32, ptr %9, align 4
  %41 = call ptr @proto_tree_add_item_ret_uint(ptr noundef %37, i32 noundef %38, ptr noundef %39, i32 noundef %40, i32 noundef 1, i32 noundef 0, ptr noundef %17)
  %42 = load ptr, ptr %14, align 8
  %43 = load i32, ptr @hf_oran_subsequence_id, align 4
  %44 = load ptr, ptr %7, align 8
  %45 = load i32, ptr %9, align 4
  %46 = call ptr @proto_tree_add_item_ret_uint(ptr noundef %42, i32 noundef %43, ptr noundef %44, i32 noundef %45, i32 noundef 1, i32 noundef 0, ptr noundef %16)
  %47 = load i32, ptr %9, align 4
  %48 = add i32 %47, 1
  store i32 %48, ptr %9, align 4
  %49 = load i32, ptr %10, align 4
  %50 = icmp eq i32 %49, 0
  br i1 %50, label %51, label %61

51:                                               ; preds = %6
  %52 = load i32, ptr %17, align 4
  %53 = icmp ne i32 %52, 1
  br i1 %53, label %57, label %54

54:                                               ; preds = %51
  %55 = load i32, ptr %16, align 4
  %56 = icmp ne i32 %55, 0
  br i1 %56, label %57, label %60

57:                                               ; preds = %54, %51
  %58 = load ptr, ptr %13, align 8
  %59 = call ptr @expert_add_info(ptr noundef null, ptr noundef %58, ptr noundef @ei_oran_radio_fragmentation_c_plane)
  br label %60

60:                                               ; preds = %57, %54
  br label %71

61:                                               ; preds = %6
  %62 = load i32, ptr %17, align 4
  %63 = icmp ne i32 %62, 1
  br i1 %63, label %67, label %64

64:                                               ; preds = %61
  %65 = load i32, ptr %16, align 4
  %66 = icmp ne i32 %65, 0
  br i1 %66, label %67, label %70

67:                                               ; preds = %64, %61
  %68 = load ptr, ptr %13, align 8
  %69 = call ptr @expert_add_info(ptr noundef null, ptr noundef %68, ptr noundef @ei_oran_radio_fragmentation_u_plane)
  br label %70

70:                                               ; preds = %67, %64
  br label %71

71:                                               ; preds = %70, %60
  %72 = load ptr, ptr %13, align 8
  %73 = load i32, ptr %15, align 4
  %74 = load i32, ptr %17, align 4
  %75 = load i32, ptr %16, align 4
  call void (ptr, ptr, ...) @proto_item_append_text(ptr noundef %72, ptr noundef @.str.1187, i32 noundef %73, i32 noundef %74, i32 noundef %75)
  %76 = load i32, ptr %9, align 4
  call void @llvm.lifetime.end.p0(i64 4, ptr %17) #12
  call void @llvm.lifetime.end.p0(i64 4, ptr %16) #12
  call void @llvm.lifetime.end.p0(i64 4, ptr %15) #12
  call void @llvm.lifetime.end.p0(i64 8, ptr %14) #12
  call void @llvm.lifetime.end.p0(i64 8, ptr %13) #12
  ret i32 %76
}