; Function Attrs: null_pointer_is_valid sspstrong uwtable
define internal fastcc noundef i32 @addSeqid(ptr noundef %0, ptr noundef %1, i32 noundef %2, i32 noundef range(i32 0, 2) %3, ptr noundef writeonly captures(none) initializes((0, 1)) %4, ptr noundef writeonly captures(none) initializes((0, 8)) %5) unnamed_addr #0 {
  %7 = alloca i32, align 4
  %8 = alloca i32, align 4
  %9 = alloca i32, align 4
  %10 = load i32, ptr @hf_oran_ecpri_seqid, align 4
  %11 = tail call ptr @proto_tree_add_item(ptr noundef %1, i32 noundef %10, ptr noundef %0, i32 noundef %2, i32 noundef 2, i32 noundef 0)
  %12 = load i32, ptr @ett_oran_ecpri_seqid, align 4
  %13 = tail call ptr @proto_item_add_subtree(ptr noundef %11, i32 noundef %12)
  call void @llvm.lifetime.start.p0(i64 4, ptr nonnull %7) #13
  call void @llvm.lifetime.start.p0(i64 4, ptr nonnull %8) #13
  call void @llvm.lifetime.start.p0(i64 4, ptr nonnull %9) #13
  store i32 0, ptr %9, align 4
  %14 = load i32, ptr @hf_oran_sequence_id, align 4
  %15 = call ptr @proto_tree_add_item_ret_uint(ptr noundef %13, i32 noundef %14, ptr noundef %0, i32 noundef %2, i32 noundef 1, i32 noundef 0, ptr noundef nonnull %7)
  store ptr %15, ptr %5, align 8
  %16 = load i32, ptr %7, align 4
  %17 = trunc i32 %16 to i8
  store i8 %17, ptr %4, align 1
  %18 = add i32 %2, 1
  %19 = load i32, ptr @hf_oran_e_bit, align 4
  %20 = call ptr @proto_tree_add_item_ret_uint(ptr noundef %13, i32 noundef %19, ptr noundef %0, i32 noundef %18, i32 noundef 1, i32 noundef 0, ptr noundef nonnull %9)
  %21 = load i32, ptr @hf_oran_subsequence_id, align 4
  %22 = call ptr @proto_tree_add_item_ret_uint(ptr noundef %13, i32 noundef %21, ptr noundef %0, i32 noundef %18, i32 noundef 1, i32 noundef 0, ptr noundef nonnull %8)
  %23 = load i32, ptr %9, align 4
  %24 = icmp ne i32 %23, 1
  %25 = load i32, ptr %8, align 4
  %26 = icmp ne i32 %25, 0
  %or.cond = select i1 %24, i1 true, i1 %26
  br i1 %or.cond, label %.sink.split, label %29

.sink.split:                                      ; preds = %6
  %27 = icmp eq i32 %3, 0
  %ei_oran_radio_fragmentation_c_plane.ei_oran_radio_fragmentation_u_plane = select i1 %27, ptr @ei_oran_radio_fragmentation_c_plane, ptr @ei_oran_radio_fragmentation_u_plane
  %28 = call ptr @expert_add_info(ptr noundef null, ptr noundef %11, ptr noundef nonnull %ei_oran_radio_fragmentation_c_plane.ei_oran_radio_fragmentation_u_plane)
  br label %29

29:                                               ; preds = %6, %.sink.split
  %30 = add i32 %2, 2
  %31 = load i32, ptr %7, align 4
  %32 = load i32, ptr %9, align 4
  %33 = load i32, ptr %8, align 4
  call void (ptr, ptr, ...) @proto_item_append_text(ptr noundef %11, ptr noundef nonnull @.str.1187, i32 noundef %31, i32 noundef %32, i32 noundef %33)
  call void @llvm.lifetime.end.p0(i64 4, ptr nonnull %9) #13
  call void @llvm.lifetime.end.p0(i64 4, ptr nonnull %8) #13
  call void @llvm.lifetime.end.p0(i64 4, ptr nonnull %7) #13
  ret i32 %30
}